target datalayout = "e-m:e-p270:32:32-p271:32:32-p272:64:64-i64:64-i128:128-f80:128-n8:16:32:64-S128"
target triple = "x86_64-pc-linux-gnu"

%struct.ForEachState = type { ptr, i32 }
%union.ListCell = type { ptr }
%struct.Query = type { i32, i32, i32, i64, i8, ptr, i32, i8, i8, i8, i8, i8, i8, i8, i8, i8, i8, i8, ptr, ptr, ptr, ptr, ptr, i32, ptr, ptr, i32, ptr, ptr, ptr, ptr, ptr, i8, ptr, ptr, ptr, ptr, ptr, ptr, ptr, i32, ptr, ptr, ptr, ptr, i32, i32 }
%struct.List = type { i32, i32, i32, ptr, [0 x %union.ListCell] }
%struct.RangeTblEntry = type { i32, ptr, ptr, i32, i32, i8, i8, i32, i32, ptr, ptr, i8, i32, i32, ptr, ptr, ptr, ptr, ptr, i8, ptr, ptr, ptr, i32, i8, ptr, ptr, ptr, ptr, double, ptr, i8, i8, ptr }
%struct.PlannerInfo = type { i32, ptr, ptr, i32, ptr, ptr, ptr, ptr, i32, ptr, ptr, ptr, ptr, ptr, ptr, ptr, ptr, i32, ptr, ptr, ptr, ptr, ptr, i8, ptr, ptr, ptr, ptr, ptr, i32, ptr, ptr, ptr, ptr, ptr, ptr, ptr, i32, ptr, ptr, ptr, i32, ptr, ptr, ptr, ptr, ptr, ptr, [8 x ptr], [8 x ptr], ptr, ptr, ptr, ptr, ptr, ptr, ptr, double, double, double, i32, i8, i8, i8, i8, i8, i8, i8, i32, ptr, ptr, i32, i8, i8, i32, ptr, ptr, ptr, ptr, ptr, ptr, i8, ptr }

; Function Attrs: nounwind uwtable
define dso_local void @preprocess_function_rtes(ptr noundef %0) #0 {
  %2 = alloca ptr, align 8
  %3 = alloca ptr, align 8
  %4 = alloca %struct.ForEachState, align 8
  %5 = alloca ptr, align 8
  %6 = alloca ptr, align 8
  store ptr %0, ptr %2, align 8
  call void @llvm.lifetime.start.p0(i64 8, ptr %3) #8
  call void @llvm.lifetime.start.p0(i64 16, ptr %4) #8
  %7 = getelementptr inbounds nuw %struct.ForEachState, ptr %4, i32 0, i32 0
  %8 = load ptr, ptr %2, align 8
  %9 = getelementptr inbounds nuw %struct.PlannerInfo, ptr %8, i32 0, i32 1
  %10 = load ptr, ptr %9, align 8
  %11 = getelementptr inbounds nuw %struct.Query, ptr %10, i32 0, i32 19
  %12 = load ptr, ptr %11, align 8
  store ptr %12, ptr %7, align 8
  %13 = getelementptr inbounds nuw %struct.ForEachState, ptr %4, i32 0, i32 1
  store i32 0, ptr %13, align 8
  %14 = getelementptr i8, ptr %4, i64 12
  call void @llvm.memset.p0.i64(ptr align 4 %14, i8 0, i64 4, i1 false)
  br label %15

15:                                               ; preds = %75, %1
  %16 = getelementptr inbounds nuw %struct.ForEachState, ptr %4, i32 0, i32 0
  %17 = load ptr, ptr %16, align 8
  %18 = icmp ne ptr %17, null
  br i1 %18, label %19, label %36

19:                                               ; preds = %15
  %20 = getelementptr inbounds nuw %struct.ForEachState, ptr %4, i32 0, i32 1
  %21 = load i32, ptr %20, align 8
  %22 = getelementptr inbounds nuw %struct.ForEachState, ptr %4, i32 0, i32 0
  %23 = load ptr, ptr %22, align 8
  %24 = getelementptr inbounds nuw %struct.List, ptr %23, i32 0, i32 1
  %25 = load i32, ptr %24, align 4
  %26 = icmp slt i32 %21, %25
  br i1 %26, label %27, label %36

27:                                               ; preds = %19
  %28 = getelementptr inbounds nuw %struct.ForEachState, ptr %4, i32 0, i32 0
  %29 = load ptr, ptr %28, align 8
  %30 = getelementptr inbounds nuw %struct.List, ptr %29, i32 0, i32 3
  %31 = load ptr, ptr %30, align 8
  %32 = getelementptr inbounds nuw %struct.ForEachState, ptr %4, i32 0, i32 1
  %33 = load i32, ptr %32, align 8
  %34 = sext i32 %33 to i64
  %35 = getelementptr inbounds %union.ListCell, ptr %31, i64 %34
  store ptr %35, ptr %3, align 8
  br label %37

36:                                               ; preds = %19, %15
  store ptr null, ptr %3, align 8
  br label %37

37:                                               ; preds = %36, %27
  %38 = phi i32 [ 1, %27 ], [ 0, %36 ]
  %39 = icmp ne i32 %38, 0
  br i1 %39, label %41, label %40

40:                                               ; preds = %37
  call void @llvm.lifetime.end.p0(i64 16, ptr %4) #8
  br label %79

41:                                               ; preds = %37
  call void @llvm.lifetime.start.p0(i64 8, ptr %5) #8
  %42 = load ptr, ptr %3, align 8
  %43 = load ptr, ptr %42, align 8
  store ptr %43, ptr %5, align 8
  %44 = load ptr, ptr %5, align 8
  %45 = getelementptr inbounds nuw %struct.RangeTblEntry, ptr %44, i32 0, i32 3
  %46 = load i32, ptr %45, align 8
  %47 = icmp eq i32 %46, 3
  br i1 %47, label %48, label %74

48:                                               ; preds = %41
  call void @llvm.lifetime.start.p0(i64 8, ptr %6) #8
  %49 = load ptr, ptr %2, align 8
  %50 = load ptr, ptr %5, align 8
  %51 = getelementptr inbounds nuw %struct.RangeTblEntry, ptr %50, i32 0, i32 18
  %52 = load ptr, ptr %51, align 8
  %53 = call ptr @eval_const_expressions(ptr noundef %49, ptr noundef %52)
  %54 = load ptr, ptr %5, align 8
  %55 = getelementptr inbounds nuw %struct.RangeTblEntry, ptr %54, i32 0, i32 18
  store ptr %53, ptr %55, align 8
  %56 = load ptr, ptr %2, align 8
  %57 = load ptr, ptr %5, align 8
  %58 = call ptr @inline_set_returning_function(ptr noundef %56, ptr noundef %57)
  store ptr %58, ptr %6, align 8
  %59 = load ptr, ptr %6, align 8
  %60 = icmp ne ptr %59, null
  br i1 %60, label %61, label %73

61:                                               ; preds = %48
  %62 = load ptr, ptr %5, align 8
  %63 = getelementptr inbounds nuw %struct.RangeTblEntry, ptr %62, i32 0, i32 3
  store i32 1, ptr %63, align 8
  %64 = load ptr, ptr %6, align 8
  %65 = load ptr, ptr %5, align 8
  %66 = getelementptr inbounds nuw %struct.RangeTblEntry, ptr %65, i32 0, i32 10
  store ptr %64, ptr %66, align 8
  %67 = load ptr, ptr %5, align 8
  %68 = getelementptr inbounds nuw %struct.RangeTblEntry, ptr %67, i32 0, i32 11
  store i8 0, ptr %68, align 8
  %69 = load ptr, ptr %5, align 8
  %70 = getelementptr inbounds nuw %struct.RangeTblEntry, ptr %69, i32 0, i32 18
  store ptr null, ptr %70, align 8
  %71 = load ptr, ptr %5, align 8
  %72 = getelementptr inbounds nuw %struct.RangeTblEntry, ptr %71, i32 0, i32 19
  store i8 0, ptr %72, align 8
  br label %73

73:                                               ; preds = %61, %48
  call void @llvm.lifetime.end.p0(i64 8, ptr %6) #8
  br label %74

74:                                               ; preds = %73, %41
  call void @llvm.lifetime.end.p0(i64 8, ptr %5) #8
  br label %75

75:                                               ; preds = %74
  %76 = getelementptr inbounds nuw %struct.ForEachState, ptr %4, i32 0, i32 1
  %77 = load i32, ptr %76, align 8
  %78 = add i32 %77, 1
  store i32 %78, ptr %76, align 8
  br label %15, !llvm.loop !12

79:                                               ; preds = %40
  call void @llvm.lifetime.end.p0(i64 8, ptr %3) #8
  ret void
}