; Function Attrs: nounwind uwtable
define dso_local void @preprocess_function_rtes(ptr noundef %0) local_unnamed_addr #0 {
  %2 = getelementptr inbounds nuw i8, ptr %0, i64 8
  %3 = load ptr, ptr %2, align 8
  %4 = getelementptr inbounds nuw i8, ptr %3, i64 64
  %5 = load ptr, ptr %4, align 8
  %6 = getelementptr inbounds nuw i8, ptr %5, i64 4
  %.not = icmp eq ptr %5, null
  br i1 %.not, label %._crit_edge, label %.lr.ph

.lr.ph:                                           ; preds = %1
  %7 = getelementptr inbounds nuw i8, ptr %5, i64 16
  %8 = load i32, ptr %6, align 4
  %9 = icmp sgt i32 %8, 0
  br i1 %9, label %.lr.ph28, label %._crit_edge

._crit_edge:                                      ; preds = %25, %.lr.ph, %1
  ret void

.lr.ph28:                                         ; preds = %.lr.ph, %25
  %indvars.iv = phi i64 [ %indvars.iv.next, %25 ], [ 0, %.lr.ph ]
  %10 = load ptr, ptr %7, align 8
  %11 = getelementptr inbounds nuw %union.ListCell, ptr %10, i64 %indvars.iv
  %12 = load ptr, ptr %11, align 8
  %13 = getelementptr inbounds nuw i8, ptr %12, i64 24
  %14 = load i32, ptr %13, align 8
  %15 = icmp eq i32 %14, 3
  br i1 %15, label %16, label %25

16:                                               ; preds = %.lr.ph28
  %17 = getelementptr inbounds nuw i8, ptr %12, i64 112
  %18 = load ptr, ptr %17, align 8
  %19 = tail call ptr @eval_const_expressions(ptr noundef %0, ptr noundef %18) #7
  store ptr %19, ptr %17, align 8
  %20 = tail call ptr @inline_set_returning_function(ptr noundef %0, ptr noundef nonnull %12) #7
  %.not22 = icmp eq ptr %20, null
  br i1 %.not22, label %25, label %21

21:                                               ; preds = %16
  store i32 1, ptr %13, align 8
  %22 = getelementptr inbounds nuw i8, ptr %12, i64 56
  store ptr %20, ptr %22, align 8
  %23 = getelementptr inbounds nuw i8, ptr %12, i64 64
  store i8 0, ptr %23, align 8
  store ptr null, ptr %17, align 8
  %24 = getelementptr inbounds nuw i8, ptr %12, i64 120
  store i8 0, ptr %24, align 8
  br label %25

25:                                               ; preds = %16, %21, %.lr.ph28
  %indvars.iv.next = add nuw nsw i64 %indvars.iv, 1
  %26 = load i32, ptr %6, align 4
  %27 = sext i32 %26 to i64
  %28 = icmp slt i64 %indvars.iv.next, %27
  br i1 %28, label %.lr.ph28, label %._crit_edge
}